target datalayout = "e-m:e-p270:32:32-p271:32:32-p272:64:64-i64:64-i128:128-f80:128-n8:16:32:64-S128"
target triple = "x86_64-pc-linux-gnu"

%struct.Vec_Ptr_t_ = type { i32, i32, ptr }

@.str.5 = private unnamed_addr constant [3 x i8] c"wb\00", align 1
@.str.6 = private unnamed_addr constant [21 x i8] c"VARIABLE NUMBER %d:\0A\00", align 1
@.str.7 = private unnamed_addr constant [4 x i8] c"%s\0A\00", align 1

; Function Attrs: inlinehint nounwind uwtable
define internal ptr @Vec_PtrEntry(ptr noundef %0, i32 noundef %1) #3 {
  %3 = alloca ptr, align 8
  %4 = alloca i32, align 4
  store ptr %0, ptr %3, align 8, !tbaa !14
  store i32 %1, ptr %4, align 4, !tbaa !8
  %5 = load ptr, ptr %3, align 8, !tbaa !14
  %6 = getelementptr inbounds nuw %struct.Vec_Ptr_t_, ptr %5, i32 0, i32 2
  %7 = load ptr, ptr %6, align 8, !tbaa !20
  %8 = load i32, ptr %4, align 4, !tbaa !8
  %9 = sext i32 %8 to i64
  %10 = getelementptr inbounds ptr, ptr %7, i64 %9
  %11 = load ptr, ptr %10, align 8, !tbaa !16
  ret ptr %11
}

; Function Attrs: inlinehint nounwind uwtable
define internal i32 @Vec_PtrSize(ptr noundef %0) #3 {
  %2 = alloca ptr, align 8
  store ptr %0, ptr %2, align 8, !tbaa !14
  %3 = load ptr, ptr %2, align 8, !tbaa !14
  %4 = getelementptr inbounds nuw %struct.Vec_Ptr_t_, ptr %3, i32 0, i32 1
  %5 = load i32, ptr %4, align 4, !tbaa !17
  ret i32 %5
}

; Function Attrs: nounwind uwtable
define void @Dau_EnumTestDump(ptr noundef %0, ptr noundef %1) #0 {
  %3 = alloca ptr, align 8
  %4 = alloca ptr, align 8
  %5 = alloca ptr, align 8
  %6 = alloca ptr, align 8
  %7 = alloca ptr, align 8
  %8 = alloca i32, align 4
  %9 = alloca i32, align 4
  %10 = alloca i32, align 4
  store ptr %0, ptr %3, align 8, !tbaa !14
  store ptr %1, ptr %4, align 8, !tbaa !3
  call void @llvm.lifetime.start.p0(i64 8, ptr %5) #8
  call void @llvm.lifetime.start.p0(i64 8, ptr %6) #8
  call void @llvm.lifetime.start.p0(i64 8, ptr %7) #8
  call void @llvm.lifetime.start.p0(i64 4, ptr %8) #8
  call void @llvm.lifetime.start.p0(i64 4, ptr %9) #8
  %11 = load ptr, ptr %4, align 8, !tbaa !3
  %12 = call noalias ptr @fopen(ptr noundef %11, ptr noundef @.str.5)
  store ptr %12, ptr %5, align 8, !tbaa !21
  %13 = load ptr, ptr %5, align 8, !tbaa !21
  %14 = icmp eq ptr %13, null
  br i1 %14, label %15, label %16

15:                                               ; preds = %2
  store i32 1, ptr %10, align 4
  br label %57

16:                                               ; preds = %2
  store i32 0, ptr %8, align 4, !tbaa !8
  br label %17

17:                                               ; preds = %51, %16
  %18 = load i32, ptr %8, align 4, !tbaa !8
  %19 = load ptr, ptr %3, align 8, !tbaa !14
  %20 = call i32 @Vec_PtrSize(ptr noundef %19)
  %21 = icmp slt i32 %18, %20
  br i1 %21, label %22, label %26

22:                                               ; preds = %17
  %23 = load ptr, ptr %3, align 8, !tbaa !14
  %24 = load i32, ptr %8, align 4, !tbaa !8
  %25 = call ptr @Vec_PtrEntry(ptr noundef %23, i32 noundef %24)
  store ptr %25, ptr %6, align 8, !tbaa !14
  br label %26

26:                                               ; preds = %22, %17
  %27 = phi i1 [ false, %17 ], [ true, %22 ]
  br i1 %27, label %28, label %54

28:                                               ; preds = %26
  %29 = load ptr, ptr %5, align 8, !tbaa !21
  %30 = load i32, ptr %8, align 4, !tbaa !8
  %31 = call i32 (ptr, ptr, ...) @fprintf(ptr noundef %29, ptr noundef @.str.6, i32 noundef %30) #8
  store i32 0, ptr %9, align 4, !tbaa !8
  br label %32

32:                                               ; preds = %47, %28
  %33 = load i32, ptr %9, align 4, !tbaa !8
  %34 = load ptr, ptr %6, align 8, !tbaa !14
  %35 = call i32 @Vec_PtrSize(ptr noundef %34)
  %36 = icmp slt i32 %33, %35
  br i1 %36, label %37, label %41

37:                                               ; preds = %32
  %38 = load ptr, ptr %6, align 8, !tbaa !14
  %39 = load i32, ptr %9, align 4, !tbaa !8
  %40 = call ptr @Vec_PtrEntry(ptr noundef %38, i32 noundef %39)
  store ptr %40, ptr %7, align 8, !tbaa !3
  br label %41

41:                                               ; preds = %37, %32
  %42 = phi i1 [ false, %32 ], [ true, %37 ]
  br i1 %42, label %43, label %50

43:                                               ; preds = %41
  %44 = load ptr, ptr %5, align 8, !tbaa !21
  %45 = load ptr, ptr %7, align 8, !tbaa !3
  %46 = call i32 (ptr, ptr, ...) @fprintf(ptr noundef %44, ptr noundef @.str.7, ptr noundef %45) #8
  br label %47

47:                                               ; preds = %43
  %48 = load i32, ptr %9, align 4, !tbaa !8
  %49 = add nsw i32 %48, 1
  store i32 %49, ptr %9, align 4, !tbaa !8
  br label %32, !llvm.loop !23

50:                                               ; preds = %41
  br label %51

51:                                               ; preds = %50
  %52 = load i32, ptr %8, align 4, !tbaa !8
  %53 = add nsw i32 %52, 1
  store i32 %53, ptr %8, align 4, !tbaa !8
  br label %17, !llvm.loop !24

54:                                               ; preds = %26
  %55 = load ptr, ptr %5, align 8, !tbaa !21
  %56 = call i32 @fclose(ptr noundef %55)
  store i32 0, ptr %10, align 4
  br label %57

57:                                               ; preds = %54, %15
  call void @llvm.lifetime.end.p0(i64 4, ptr %9) #8
  call void @llvm.lifetime.end.p0(i64 4, ptr %8) #8
  call void @llvm.lifetime.end.p0(i64 8, ptr %7) #8
  call void @llvm.lifetime.end.p0(i64 8, ptr %6) #8
  call void @llvm.lifetime.end.p0(i64 8, ptr %5) #8
  %58 = load i32, ptr %10, align 4
  switch i32 %58, label %60 [
    i32 0, label %59
    i32 1, label %59
  ]

59:                                               ; preds = %57, %57
  ret void

60:                                               ; preds = %57
  unreachable
}