; Function Attrs: nofree nounwind uwtable
define void @Dau_EnumTestDump(ptr noundef readonly captures(none) %0, ptr noundef readonly captures(none) %1) local_unnamed_addr #3 {
  %3 = tail call noalias ptr @fopen(ptr noundef %1, ptr noundef nonnull @.str.5)
  %4 = icmp eq ptr %3, null
  br i1 %4, label %25, label %.preheader

.preheader:                                       ; preds = %2
  %5 = getelementptr i8, ptr %0, i64 4
  %.val25 = load i32, ptr %5, align 4, !tbaa !9
  %6 = icmp sgt i32 %.val25, 0
  br i1 %6, label %.lr.ph27, label %.critedge

.lr.ph27:                                         ; preds = %.preheader
  %7 = getelementptr i8, ptr %0, i64 8
  br label %8

8:                                                ; preds = %.lr.ph27, %.critedge2
  %indvars.iv29 = phi i64 [ 0, %.lr.ph27 ], [ %indvars.iv.next30, %.critedge2 ]
  %.val21 = load ptr, ptr %7, align 8, !tbaa !14
  %9 = getelementptr inbounds nuw ptr, ptr %.val21, i64 %indvars.iv29
  %10 = load ptr, ptr %9, align 8, !tbaa !15
  %11 = trunc nuw nsw i64 %indvars.iv29 to i32
  %12 = tail call i32 (ptr, ptr, ...) @fprintf(ptr noundef nonnull %3, ptr noundef nonnull @.str.6, i32 noundef %11) #12
  %13 = getelementptr i8, ptr %10, i64 4
  %.val2023 = load i32, ptr %13, align 4, !tbaa !9
  %14 = icmp sgt i32 %.val2023, 0
  br i1 %14, label %.lr.ph, label %.critedge2

.lr.ph:                                           ; preds = %8
  %15 = getelementptr i8, ptr %10, i64 8
  br label %16

16:                                               ; preds = %.lr.ph, %16
  %indvars.iv = phi i64 [ 0, %.lr.ph ], [ %indvars.iv.next, %16 ]
  %.val22 = load ptr, ptr %15, align 8, !tbaa !14
  %17 = getelementptr inbounds nuw ptr, ptr %.val22, i64 %indvars.iv
  %18 = load ptr, ptr %17, align 8, !tbaa !15
  %19 = tail call i32 (ptr, ptr, ...) @fprintf(ptr noundef nonnull %3, ptr noundef nonnull @.str.7, ptr noundef %18) #12
  %indvars.iv.next = add nuw nsw i64 %indvars.iv, 1
  %.val20 = load i32, ptr %13, align 4, !tbaa !9
  %20 = sext i32 %.val20 to i64
  %21 = icmp slt i64 %indvars.iv.next, %20
  br i1 %21, label %16, label %.critedge2, !llvm.loop !16

.critedge2:                                       ; preds = %16, %8
  %indvars.iv.next30 = add nuw nsw i64 %indvars.iv29, 1
  %.val = load i32, ptr %5, align 4, !tbaa !9
  %22 = sext i32 %.val to i64
  %23 = icmp slt i64 %indvars.iv.next30, %22
  br i1 %23, label %8, label %.critedge, !llvm.loop !17

.critedge:                                        ; preds = %.critedge2, %.preheader
  %24 = tail call i32 @fclose(ptr noundef nonnull %3)
  br label %25

25:                                               ; preds = %2, %.critedge
  ret void
}